; Function Attrs: mustprogress nounwind uwtable
define dso_local void @_ZN4llvm13MCInstPrinter10WithMarkupC2ERNS_11raw_ostreamENS0_6MarkupEbb(ptr nocapture noundef nonnull writeonly align 8 dereferenceable(10) %0, ptr noundef nonnull align 8 dereferenceable(48) %1, i32 noundef %2, i1 noundef zeroext %3, i1 noundef zeroext %4) unnamed_addr #0 align 2 {
  %6 = zext i1 %3 to i8
  %7 = zext i1 %4 to i8
  store ptr %1, ptr %0, align 8
  %8 = getelementptr inbounds nuw i8, ptr %0, i64 8
  store i8 %6, ptr %8, align 8
  %9 = getelementptr inbounds nuw i8, ptr %0, i64 9
  store i8 %7, ptr %9, align 1
  %10 = icmp ult i32 %2, 4
  %or.cond = and i1 %4, %10
  br i1 %or.cond, label %switch.lookup, label %16

switch.lookup:                                    ; preds = %5
  %11 = zext nneg i32 %2 to i64
  %switch.gep = getelementptr inbounds [4 x i32], ptr @switch.table._ZN4llvm13MCInstPrinter10WithMarkupC2ERNS_11raw_ostreamENS0_6MarkupEbb, i64 0, i64 %11
  %switch.load = load i32, ptr %switch.gep, align 4
  %12 = load ptr, ptr %1, align 8
  %13 = getelementptr inbounds i8, ptr %12, i64 24
  %14 = load ptr, ptr %13, align 8
  %15 = tail call noundef nonnull align 8 dereferenceable(48) ptr %14(ptr noundef nonnull align 8 dereferenceable(48) %1, i32 noundef %switch.load, i1 noundef zeroext false, i1 noundef zeroext false) #13
  br label %16

16:                                               ; preds = %switch.lookup, %5
  br i1 %3, label %17, label %_ZN4llvm11raw_ostreamlsEPKc.exit

17:                                               ; preds = %16
  switch i32 %2, label %_ZN4llvm11raw_ostreamlsEPKc.exit [
    i32 0, label %18
    i32 1, label %32
    i32 2, label %46
    i32 3, label %60
  ]

18:                                               ; preds = %17
  %19 = getelementptr inbounds nuw i8, ptr %1, i64 24
  %20 = load ptr, ptr %19, align 8
  %21 = getelementptr inbounds nuw i8, ptr %1, i64 32
  %22 = load ptr, ptr %21, align 8
  %23 = ptrtoint ptr %20 to i64
  %24 = ptrtoint ptr %22 to i64
  %25 = sub i64 %23, %24
  %26 = icmp ult i64 %25, 5
  br i1 %26, label %27, label %29

27:                                               ; preds = %18
  %28 = tail call noundef nonnull align 8 dereferenceable(48) ptr @_ZN4llvm11raw_ostream5writeEPKcm(ptr noundef nonnull align 8 dereferenceable(48) %1, ptr noundef nonnull @.str.10, i64 noundef 5) #13
  br label %_ZN4llvm11raw_ostreamlsEPKc.exit

29:                                               ; preds = %18
  tail call void @llvm.memcpy.p0.p0.i64(ptr noundef nonnull align 1 dereferenceable(5) %22, ptr noundef nonnull align 1 dereferenceable(5) @.str.10, i64 5, i1 false)
  %30 = load ptr, ptr %21, align 8
  %31 = getelementptr inbounds i8, ptr %30, i64 5
  store ptr %31, ptr %21, align 8
  br label %_ZN4llvm11raw_ostreamlsEPKc.exit

32:                                               ; preds = %17
  %33 = getelementptr inbounds nuw i8, ptr %1, i64 24
  %34 = load ptr, ptr %33, align 8
  %35 = getelementptr inbounds nuw i8, ptr %1, i64 32
  %36 = load ptr, ptr %35, align 8
  %37 = ptrtoint ptr %34 to i64
  %38 = ptrtoint ptr %36 to i64
  %39 = sub i64 %37, %38
  %40 = icmp ult i64 %39, 5
  br i1 %40, label %41, label %43

41:                                               ; preds = %32
  %42 = tail call noundef nonnull align 8 dereferenceable(48) ptr @_ZN4llvm11raw_ostream5writeEPKcm(ptr noundef nonnull align 8 dereferenceable(48) %1, ptr noundef nonnull @.str.11, i64 noundef 5) #13
  br label %_ZN4llvm11raw_ostreamlsEPKc.exit

43:                                               ; preds = %32
  tail call void @llvm.memcpy.p0.p0.i64(ptr noundef nonnull align 1 dereferenceable(5) %36, ptr noundef nonnull align 1 dereferenceable(5) @.str.11, i64 5, i1 false)
  %44 = load ptr, ptr %35, align 8
  %45 = getelementptr inbounds i8, ptr %44, i64 5
  store ptr %45, ptr %35, align 8
  br label %_ZN4llvm11raw_ostreamlsEPKc.exit

46:                                               ; preds = %17
  %47 = getelementptr inbounds nuw i8, ptr %1, i64 24
  %48 = load ptr, ptr %47, align 8
  %49 = getelementptr inbounds nuw i8, ptr %1, i64 32
  %50 = load ptr, ptr %49, align 8
  %51 = ptrtoint ptr %48 to i64
  %52 = ptrtoint ptr %50 to i64
  %53 = sub i64 %51, %52
  %54 = icmp ult i64 %53, 8
  br i1 %54, label %55, label %57

55:                                               ; preds = %46
  %56 = tail call noundef nonnull align 8 dereferenceable(48) ptr @_ZN4llvm11raw_ostream5writeEPKcm(ptr noundef nonnull align 8 dereferenceable(48) %1, ptr noundef nonnull @.str.12, i64 noundef 8) #13
  br label %_ZN4llvm11raw_ostreamlsEPKc.exit

57:                                               ; preds = %46
  store i64 4212103046473282620, ptr %50, align 1
  %58 = load ptr, ptr %49, align 8
  %59 = getelementptr inbounds i8, ptr %58, i64 8
  store ptr %59, ptr %49, align 8
  br label %_ZN4llvm11raw_ostreamlsEPKc.exit

60:                                               ; preds = %17
  %61 = getelementptr inbounds nuw i8, ptr %1, i64 24
  %62 = load ptr, ptr %61, align 8
  %63 = getelementptr inbounds nuw i8, ptr %1, i64 32
  %64 = load ptr, ptr %63, align 8
  %65 = ptrtoint ptr %62 to i64
  %66 = ptrtoint ptr %64 to i64
  %67 = sub i64 %65, %66
  %68 = icmp ult i64 %67, 5
  br i1 %68, label %69, label %71

69:                                               ; preds = %60
  %70 = tail call noundef nonnull align 8 dereferenceable(48) ptr @_ZN4llvm11raw_ostream5writeEPKcm(ptr noundef nonnull align 8 dereferenceable(48) %1, ptr noundef nonnull @.str.13, i64 noundef 5) #13
  br label %_ZN4llvm11raw_ostreamlsEPKc.exit

71:                                               ; preds = %60
  tail call void @llvm.memcpy.p0.p0.i64(ptr noundef nonnull align 1 dereferenceable(5) %64, ptr noundef nonnull align 1 dereferenceable(5) @.str.13, i64 5, i1 false)
  %72 = load ptr, ptr %63, align 8
  %73 = getelementptr inbounds i8, ptr %72, i64 5
  store ptr %73, ptr %63, align 8
  br label %_ZN4llvm11raw_ostreamlsEPKc.exit

_ZN4llvm11raw_ostreamlsEPKc.exit:                 ; preds = %71, %69, %57, %55, %43, %41, %29, %27, %17, %16
  ret void
}